target datalayout = "e-m:e-p270:32:32-p271:32:32-p272:64:64-i64:64-i128:128-f80:128-n8:16:32:64-S128"
target triple = "x86_64-pc-linux-gnu"

%struct.H5_user_cb_state_t = type { %struct.H5E_user_cb_state_t }
%struct.H5E_user_cb_state_t = type { i32, %union.anon, ptr }
%union.anon = type { ptr }
%struct.H5VL_class_t = type { i32, i32, ptr, i32, i64, ptr, ptr, %struct.H5VL_info_class_t, %struct.H5VL_wrap_class_t, %struct.H5VL_attr_class_t, %struct.H5VL_dataset_class_t, %struct.H5VL_datatype_class_t, %struct.H5VL_file_class_t, %struct.H5VL_group_class_t, %struct.H5VL_link_class_t, %struct.H5VL_object_class_t, %struct.H5VL_introspect_class_t, %struct.H5VL_request_class_t, %struct.H5VL_blob_class_t, %struct.H5VL_token_class_t, ptr }
%struct.H5VL_info_class_t = type { i64, ptr, ptr, ptr, ptr, ptr }
%struct.H5VL_wrap_class_t = type { ptr, ptr, ptr, ptr, ptr }
%struct.H5VL_attr_class_t = type { ptr, ptr, ptr, ptr, ptr, ptr, ptr, ptr }
%struct.H5VL_dataset_class_t = type { ptr, ptr, ptr, ptr, ptr, ptr, ptr, ptr }
%struct.H5VL_datatype_class_t = type { ptr, ptr, ptr, ptr, ptr, ptr }
%struct.H5VL_file_class_t = type { ptr, ptr, ptr, ptr, ptr, ptr }
%struct.H5VL_group_class_t = type { ptr, ptr, ptr, ptr, ptr, ptr }
%struct.H5VL_link_class_t = type { ptr, ptr, ptr, ptr, ptr, ptr }
%struct.H5VL_object_class_t = type { ptr, ptr, ptr, ptr, ptr }
%struct.H5VL_introspect_class_t = type { ptr, ptr, ptr }
%struct.H5VL_request_class_t = type { ptr, ptr, ptr, ptr, ptr, ptr }
%struct.H5VL_blob_class_t = type { ptr, ptr, ptr, ptr }
%struct.H5VL_token_class_t = type { ptr, ptr, ptr }

@.str = private unnamed_addr constant [106 x i8] c"generated/home/dtcxzyw/WorkSpace/Projects/compilers/llvm-opt-benchmark/bench/hdf5/hdf5/src/H5VLcallback.c\00", align 1
@H5E_LIB_g = external global i64, align 8
@H5E_CANTSET_g = external global i64, align 8
@.str.2 = private unnamed_addr constant [37 x i8] c"preparation for user callback failed\00", align 1
@H5E_CANTRESTORE_g = external global i64, align 8
@H5E_VOL_g = external global i64, align 8
@H5VL_init_g = external global i8, align 1
@H5_libterm_g = external global i8, align 1
@H5E_UNSUPPORTED_g = external global i64, align 8
@H5E_WRITEERROR_g = external global i64, align 8
@.str.61 = private unnamed_addr constant [21 x i8] c"dataset write failed\00", align 1
@__func__.H5VL__dataset_write = private unnamed_addr constant [20 x i8] c"H5VL__dataset_write\00", align 1
@.str.184 = private unnamed_addr constant [44 x i8] c"VOL connector has no 'dataset write' method\00", align 1

; Function Attrs: nounwind uwtable
define internal i32 @H5VL__dataset_write(i64 noundef %0, ptr noundef %1, ptr noundef %2, ptr noundef %3, ptr noundef %4, ptr noundef %5, i64 noundef %6, ptr noundef %7, ptr noundef %8) #0 {
  %10 = alloca i32, align 4
  %11 = alloca i64, align 8
  %12 = alloca ptr, align 8
  %13 = alloca ptr, align 8
  %14 = alloca ptr, align 8
  %15 = alloca ptr, align 8
  %16 = alloca ptr, align 8
  %17 = alloca i64, align 8
  %18 = alloca ptr, align 8
  %19 = alloca ptr, align 8
  %20 = alloca i32, align 4
  %21 = alloca i8, align 1
  %22 = alloca %struct.H5_user_cb_state_t, align 8
  %23 = alloca i32, align 4
  store i64 %0, ptr %11, align 8, !tbaa !3
  store ptr %1, ptr %12, align 8, !tbaa !42
  store ptr %2, ptr %13, align 8, !tbaa !54
  store ptr %3, ptr %14, align 8, !tbaa !36
  store ptr %4, ptr %15, align 8, !tbaa !36
  store ptr %5, ptr %16, align 8, !tbaa !36
  store i64 %6, ptr %17, align 8, !tbaa !3
  store ptr %7, ptr %18, align 8, !tbaa !42
  store ptr %8, ptr %19, align 8, !tbaa !42
  call void @llvm.lifetime.start.p0(i64 4, ptr %20) #8
  store i32 0, ptr %20, align 4, !tbaa !7
  call void @llvm.lifetime.start.p0(i64 1, ptr %21) #8
  store i8 0, ptr %21, align 1, !tbaa !9
  %24 = load i8, ptr @H5VL_init_g, align 1, !tbaa !9, !range !14, !noundef !15
  %25 = trunc i8 %24 to i1
  br i1 %25, label %30, label %26

26:                                               ; preds = %9
  %27 = load i8, ptr @H5_libterm_g, align 1, !tbaa !9, !range !14, !noundef !15
  %28 = trunc i8 %27 to i1
  %29 = xor i1 %28, true
  br label %30

30:                                               ; preds = %26, %9
  %31 = phi i1 [ true, %9 ], [ %29, %26 ]
  %32 = xor i1 %31, true
  %33 = xor i1 %32, true
  %34 = zext i1 %33 to i32
  %35 = sext i32 %34 to i64
  %36 = call i64 @llvm.expect.i64(i64 %35, i64 1)
  %37 = icmp ne i64 %36, 0
  br i1 %37, label %38, label %147

38:                                               ; preds = %30
  %39 = load ptr, ptr %13, align 8, !tbaa !54
  %40 = getelementptr inbounds nuw %struct.H5VL_class_t, ptr %39, i32 0, i32 10
  %41 = getelementptr inbounds nuw %struct.H5VL_dataset_class_t, ptr %40, i32 0, i32 3
  %42 = load ptr, ptr %41, align 8, !tbaa !87
  %43 = icmp eq ptr null, %42
  br i1 %43, label %44, label %63

44:                                               ; preds = %38
  br label %45

45:                                               ; preds = %44
  br label %46

46:                                               ; preds = %45
  br label %47

47:                                               ; preds = %46
  %48 = load i64, ptr @H5E_VOL_g, align 8, !tbaa !3
  %49 = load i64, ptr @H5E_UNSUPPORTED_g, align 8, !tbaa !3
  %50 = call i32 (ptr, ptr, i32, i64, i64, ptr, ...) @H5E_printf_stack(ptr noundef @.str, ptr noundef @__func__.H5VL__dataset_write, i32 noundef 2285, i64 noundef %48, i64 noundef %49, ptr noundef @.str.184)
  br label %51

51:                                               ; preds = %47
  br label %52

52:                                               ; preds = %51
  store i8 1, ptr %21, align 1, !tbaa !9
  %53 = load i8, ptr %21, align 1, !tbaa !9, !range !14, !noundef !15
  %54 = trunc i8 %53 to i1
  %55 = zext i1 %54 to i8
  store i8 %55, ptr %21, align 1, !tbaa !9
  br label %56

56:                                               ; preds = %52
  br label %57

57:                                               ; preds = %56
  br label %58

58:                                               ; preds = %57
  store i32 -1, ptr %20, align 4, !tbaa !7
  br label %146

59:                                               ; No predecessors!
  br label %60

60:                                               ; preds = %59
  br label %61

61:                                               ; preds = %60
  br label %62

62:                                               ; preds = %61
  br label %63

63:                                               ; preds = %62, %38
  call void @llvm.lifetime.start.p0(i64 24, ptr %22) #8
  %64 = call i32 @H5_user_cb_prepare(ptr noundef %22)
  %65 = icmp slt i32 %64, 0
  br i1 %65, label %66, label %85

66:                                               ; preds = %63
  br label %67

67:                                               ; preds = %66
  br label %68

68:                                               ; preds = %67
  br label %69

69:                                               ; preds = %68
  %70 = load i64, ptr @H5E_LIB_g, align 8, !tbaa !3
  %71 = load i64, ptr @H5E_CANTSET_g, align 8, !tbaa !3
  %72 = call i32 (ptr, ptr, i32, i64, i64, ptr, ...) @H5E_printf_stack(ptr noundef @.str, ptr noundef @__func__.H5VL__dataset_write, i32 noundef 2288, i64 noundef %70, i64 noundef %71, ptr noundef @.str.2)
  br label %73

73:                                               ; preds = %69
  br label %74

74:                                               ; preds = %73
  store i8 1, ptr %21, align 1, !tbaa !9
  %75 = load i8, ptr %21, align 1, !tbaa !9, !range !14, !noundef !15
  %76 = trunc i8 %75 to i1
  %77 = zext i1 %76 to i8
  store i8 %77, ptr %21, align 1, !tbaa !9
  br label %78

78:                                               ; preds = %74
  br label %79

79:                                               ; preds = %78
  br label %80

80:                                               ; preds = %79
  store i32 -1, ptr %20, align 4, !tbaa !7
  store i32 10, ptr %23, align 4
  br label %121

81:                                               ; No predecessors!
  br label %82

82:                                               ; preds = %81
  br label %83

83:                                               ; preds = %82
  br label %84

84:                                               ; preds = %83
  br label %85

85:                                               ; preds = %84, %63
  %86 = load ptr, ptr %13, align 8, !tbaa !54
  %87 = getelementptr inbounds nuw %struct.H5VL_class_t, ptr %86, i32 0, i32 10
  %88 = getelementptr inbounds nuw %struct.H5VL_dataset_class_t, ptr %87, i32 0, i32 3
  %89 = load ptr, ptr %88, align 8, !tbaa !87
  %90 = load i64, ptr %11, align 8, !tbaa !3
  %91 = load ptr, ptr %12, align 8, !tbaa !42
  %92 = load ptr, ptr %14, align 8, !tbaa !36
  %93 = load ptr, ptr %15, align 8, !tbaa !36
  %94 = load ptr, ptr %16, align 8, !tbaa !36
  %95 = load i64, ptr %17, align 8, !tbaa !3
  %96 = load ptr, ptr %18, align 8, !tbaa !42
  %97 = load ptr, ptr %19, align 8, !tbaa !42
  %98 = call i32 %89(i64 noundef %90, ptr noundef %91, ptr noundef %92, ptr noundef %93, ptr noundef %94, i64 noundef %95, ptr noundef %96, ptr noundef %97)
  store i32 %98, ptr %20, align 4, !tbaa !7
  %99 = call i32 @H5_user_cb_restore(ptr noundef %22)
  %100 = icmp slt i32 %99, 0
  br i1 %100, label %101, label %120

101:                                              ; preds = %85
  br label %102

102:                                              ; preds = %101
  br label %103

103:                                              ; preds = %102
  br label %104

104:                                              ; preds = %103
  %105 = load i64, ptr @H5E_LIB_g, align 8, !tbaa !3
  %106 = load i64, ptr @H5E_CANTRESTORE_g, align 8, !tbaa !3
  %107 = call i32 (ptr, ptr, i32, i64, i64, ptr, ...) @H5E_printf_stack(ptr noundef @.str, ptr noundef @__func__.H5VL__dataset_write, i32 noundef 2294, i64 noundef %105, i64 noundef %106, ptr noundef @.str.2)
  br label %108

108:                                              ; preds = %104
  br label %109

109:                                              ; preds = %108
  store i8 1, ptr %21, align 1, !tbaa !9
  %110 = load i8, ptr %21, align 1, !tbaa !9, !range !14, !noundef !15
  %111 = trunc i8 %110 to i1
  %112 = zext i1 %111 to i8
  store i8 %112, ptr %21, align 1, !tbaa !9
  br label %113

113:                                              ; preds = %109
  br label %114

114:                                              ; preds = %113
  br label %115

115:                                              ; preds = %114
  store i32 -1, ptr %20, align 4, !tbaa !7
  store i32 10, ptr %23, align 4
  br label %121

116:                                              ; No predecessors!
  br label %117

117:                                              ; preds = %116
  br label %118

118:                                              ; preds = %117
  br label %119

119:                                              ; preds = %118
  br label %120

120:                                              ; preds = %119, %85
  store i32 0, ptr %23, align 4
  br label %121

121:                                              ; preds = %115, %80, %120
  call void @llvm.lifetime.end.p0(i64 24, ptr %22) #8
  %122 = load i32, ptr %23, align 4
  switch i32 %122, label %149 [
    i32 0, label %123
    i32 10, label %146
  ]

123:                                              ; preds = %121
  %124 = load i32, ptr %20, align 4, !tbaa !7
  %125 = icmp slt i32 %124, 0
  br i1 %125, label %126, label %145

126:                                              ; preds = %123
  br label %127

127:                                              ; preds = %126
  br label %128

128:                                              ; preds = %127
  br label %129

129:                                              ; preds = %128
  %130 = load i64, ptr @H5E_VOL_g, align 8, !tbaa !3
  %131 = load i64, ptr @H5E_WRITEERROR_g, align 8, !tbaa !3
  %132 = call i32 (ptr, ptr, i32, i64, i64, ptr, ...) @H5E_printf_stack(ptr noundef @.str, ptr noundef @__func__.H5VL__dataset_write, i32 noundef 2296, i64 noundef %130, i64 noundef %131, ptr noundef @.str.61)
  br label %133

133:                                              ; preds = %129
  br label %134

134:                                              ; preds = %133
  store i8 1, ptr %21, align 1, !tbaa !9
  %135 = load i8, ptr %21, align 1, !tbaa !9, !range !14, !noundef !15
  %136 = trunc i8 %135 to i1
  %137 = zext i1 %136 to i8
  store i8 %137, ptr %21, align 1, !tbaa !9
  br label %138

138:                                              ; preds = %134
  br label %139

139:                                              ; preds = %138
  br label %140

140:                                              ; preds = %139
  store i32 -1, ptr %20, align 4, !tbaa !7
  br label %146

141:                                              ; No predecessors!
  br label %142

142:                                              ; preds = %141
  br label %143

143:                                              ; preds = %142
  br label %144

144:                                              ; preds = %143
  br label %145

145:                                              ; preds = %144, %123
  br label %146

146:                                              ; preds = %145, %121, %140, %58
  br label %147

147:                                              ; preds = %146, %30
  %148 = load i32, ptr %20, align 4, !tbaa !7
  store i32 %148, ptr %10, align 4
  store i32 1, ptr %23, align 4
  br label %149

149:                                              ; preds = %147, %121
  call void @llvm.lifetime.end.p0(i64 1, ptr %21) #8
  call void @llvm.lifetime.end.p0(i64 4, ptr %20) #8
  %150 = load i32, ptr %10, align 4
  ret i32 %150
}