; Function Attrs: nounwind uwtable
define internal fastcc range(i32 -1, -2147483648) i32 @H5VL__dataset_write(i64 noundef %0, ptr noundef %1, ptr noundef readonly captures(none) %2, ptr noundef %3, ptr noundef %4, ptr noundef %5, i64 noundef %6, ptr noundef %7, ptr noundef %8) unnamed_addr #0 {
  %10 = alloca %struct.H5_user_cb_state_t, align 8
  %11 = load i8, ptr @H5VL_init_g, align 1, !tbaa !33, !range !35, !noundef !36
  %12 = trunc nuw i8 %11 to i1
  %13 = load i8, ptr @H5_libterm_g, align 1, !range !35
  %14 = trunc nuw i8 %13 to i1
  %15 = xor i1 %14, true
  %16 = select i1 %12, i1 true, i1 %15
  br i1 %16, label %17, label %42, !prof !37

17:                                               ; preds = %9
  %18 = getelementptr inbounds nuw i8, ptr %2, i64 224
  %19 = load ptr, ptr %18, align 8, !tbaa !75
  %20 = icmp eq ptr %19, null
  br i1 %20, label %21, label %25

21:                                               ; preds = %17
  %22 = load i64, ptr @H5E_VOL_g, align 8, !tbaa !3
  %23 = load i64, ptr @H5E_UNSUPPORTED_g, align 8, !tbaa !3
  %24 = tail call i32 (ptr, ptr, i32, i64, i64, ptr, ...) @H5E_printf_stack(ptr noundef nonnull @.str, ptr noundef nonnull @__func__.H5VL__dataset_write, i32 noundef 2285, i64 noundef %22, i64 noundef %23, ptr noundef nonnull @.str.184) #7
  br label %42

25:                                               ; preds = %17
  call void @llvm.lifetime.start.p0(i64 24, ptr nonnull %10) #7
  %26 = call i32 @H5_user_cb_prepare(ptr noundef nonnull %10) #7
  %27 = icmp slt i32 %26, 0
  br i1 %27, label %.thread, label %28

28:                                               ; preds = %25
  %29 = load ptr, ptr %18, align 8, !tbaa !75
  %30 = call i32 %29(i64 noundef %0, ptr noundef %1, ptr noundef %3, ptr noundef %4, ptr noundef %5, i64 noundef %6, ptr noundef %7, ptr noundef %8) #7
  %31 = call i32 @H5_user_cb_restore(ptr noundef nonnull %10) #7
  %32 = icmp slt i32 %31, 0
  br i1 %32, label %.thread, label %36

.thread:                                          ; preds = %28, %25
  %H5E_CANTSET_g.sink = phi ptr [ @H5E_CANTSET_g, %25 ], [ @H5E_CANTRESTORE_g, %28 ]
  %.sink = phi i32 [ 2288, %25 ], [ 2294, %28 ]
  %33 = load i64, ptr @H5E_LIB_g, align 8, !tbaa !3
  %34 = load i64, ptr %H5E_CANTSET_g.sink, align 8, !tbaa !3
  %35 = call i32 (ptr, ptr, i32, i64, i64, ptr, ...) @H5E_printf_stack(ptr noundef nonnull @.str, ptr noundef nonnull @__func__.H5VL__dataset_write, i32 noundef %.sink, i64 noundef %33, i64 noundef %34, ptr noundef nonnull @.str.2) #7
  call void @llvm.lifetime.end.p0(i64 24, ptr nonnull %10) #7
  br label %42

36:                                               ; preds = %28
  call void @llvm.lifetime.end.p0(i64 24, ptr nonnull %10) #7
  %37 = icmp slt i32 %30, 0
  br i1 %37, label %38, label %42

38:                                               ; preds = %36
  %39 = load i64, ptr @H5E_VOL_g, align 8, !tbaa !3
  %40 = load i64, ptr @H5E_WRITEERROR_g, align 8, !tbaa !3
  %41 = call i32 (ptr, ptr, i32, i64, i64, ptr, ...) @H5E_printf_stack(ptr noundef nonnull @.str, ptr noundef nonnull @__func__.H5VL__dataset_write, i32 noundef 2296, i64 noundef %39, i64 noundef %40, ptr noundef nonnull @.str.61) #7
  br label %42

42:                                               ; preds = %.thread, %36, %9, %38, %21
  %.018 = phi i32 [ -1, %21 ], [ %30, %36 ], [ -1, %38 ], [ 0, %9 ], [ -1, %.thread ]
  ret i32 %.018
}